Certificate:
    Data:
        Version: 3 (0x2)
        Serial Number: 10743780194966223203 (0x9519932a11d6b963)
    Signature Algorithm: sha1WithRSAEncryption
        Issuer: C=CA, ST=Ontario, L=Toronto, O=University of Toronto, OU=ECE568, CN=ECE568 Certificate Authority/emailAddress=ece568ca@ecf.utoronto.ca
        Validity
            Not Before: Mar  6 02:59:30 2013 GMT
            Not After : Mar  4 02:59:30 2023 GMT
        Subject: C=CA, ST=Ontario, O=University of Toronto, OU=ECE568, CN=Bob's Server/emailAddress=ece568bob@ecf.utoronto.ca
        Subject Public Key Info:
            Public Key Algorithm: rsaEncryption
                Public-Key: (4096 bit)
                Modulus:
                    00:c0:4c:44:26:18:26:b6:6b:57:c8:ca:2a:ad:df:
                    8e:52:48:c6:b1:c9:74:9d:33:36:6b:dd:b9:07:a6:
                    f4:f5:af:6f:07:62:98:17:f4:e5:14:f2:71:03:44:
                    b3:64:02:1a:a1:13:46:49:11:f7:eb:1b:75:a1:ba:
                    dc:8c:3b:c3:14:47:ce:1e:b3:c4:9c:36:04:dd:58:
                    e1:21:87:dd:db:55:53:78:6c:43:2b:fb:68:a7:ef:
                    e2:51:6f:4e:ad:6a:51:e8:f1:20:f2:2a:2a:71:36:
                    2e:0c:4d:35:05:80:cf:53:af:25:85:62:a9:1a:7c:
                    ff:3d:04:94:30:ba:80:7b:0d:7d:f1:76:04:c1:ac:
                    0a:af:ac:c5:02:60:8a:b2:ec:8e:ca:0e:7a:24:8b:
                    00:09:03:9e:3f:45:39:69:32:bc:e5:85:62:0a:45:
                    a5:1d:c1:cd:41:cd:fc:f2:2b:75:b8:21:0e:21:89:
                    0b:35:5e:ce:2e:e7:d0:c6:71:7f:5e:e9:39:f2:24:
                    c8:94:63:1c:75:cc:e7:cc:f2:32:fa:c0:aa:81:ea:
                    26:62:26:23:7c:53:c2:2e:c7:71:45:18:c6:77:5b:
                    ff:98:31:d2:3b:00:1e:21:61:4d:41:9e:48:07:21:
                    a9:7b:7f:80:c3:24:62:3a:16:a2:1f:dd:43:89:84:
                    78:72:bb:ee:33:af:39:ca:c0:f5:5d:78:7c:79:7b:
                    05:fd:75:11:42:25:7f:05:a3:9e:d2:8f:23:44:6a:
                    79:fa:94:8d:55:77:3f:63:d7:ca:f9:10:52:71:a2:
                    29:94:b3:5c:93:99:a0:54:6c:8b:91:84:bf:e0:c8:
                    21:fb:53:98:f2:37:e0:0a:7d:ee:c9:67:34:24:49:
                    a3:15:ae:60:41:b3:9f:cc:33:b1:6a:17:fb:57:10:
                    7b:0b:c8:14:08:45:25:04:cc:80:1c:23:e7:82:17:
                    d1:54:5d:12:71:19:51:48:01:a5:ea:a8:2b:21:2c:
                    8d:22:0b:25:24:68:60:b5:a7:dd:56:97:cc:3d:bf:
                    99:bd:e4:b4:b4:0c:d7:23:2b:4c:38:30:05:93:5e:
                    43:41:6a:81:81:74:48:af:38:0f:62:8c:ad:70:f9:
                    81:90:07:8a:d2:f1:30:dd:51:98:44:a5:47:3c:74:
                    5e:a1:d7:ad:57:68:69:25:04:58:6a:28:0f:8c:7f:
                    5a:ea:11:8e:a3:df:e6:80:60:e3:af:ec:c0:96:b4:
                    68:49:e6:02:46:1d:9d:3a:29:14:74:68:bc:e6:61:
                    46:a8:9e:46:b0:76:4f:20:52:49:75:a7:05:7e:11:
                    f3:73:8d:32:38:b3:91:7c:63:2c:4d:e0:f7:5b:7f:
                    d7:45:f5
                Exponent: 65537 (0x10001)
    Signature Algorithm: sha1WithRSAEncryption
         5d:82:0f:4e:4a:84:3c:44:8c:44:6e:d5:6e:8b:92:c3:c0:2c:
         9d:08:0e:3d:f8:5b:ad:c3:1b:db:d5:95:0e:ca:a0:c5:17:0e:
         e3:73:4d:bb:45:73:4e:6c:50:d1:40:70:9e:1b:97:49:a7:59:
         1c:24:53:ce:21:c3:46:42:ee:e8:94:bc:8c:56:c2:d4:0d:92:
         13:ab:29:c2:29:fa:71:7d:ff:24:07:7a:37:fb:a2:6e:37:e9:
         6e:a5:a1:7b:63:4d:2e:6c:33:aa:34:d1:72:aa:f3:84:87:c9:
         e4:f0:1f:9e:88:f2:73:d9:71:f2:91:fa:ba:2d:87:d0:68:b6:
         c3:8e:0f:eb:0e:18:43:51:30:d6:02:4a:80:c6:c1:cd:35:c1:
         71:c1:9e:06:e3:92:28:a8:88:11:2a:a1:71:97:79:96:8d:b9:
         a7:b6:b7:a8:21:60:5c:01:03:c9:32:b6:de:25:e0:ed:87:9f:
         cf:82:b0:36:63:eb:a0:18:92:12:7c:2a:4f:82:89:04:c7:64:
         52:7b:72:87:03:64:4c:95:06:46:dd:02:27:58:88:6f:8c:f0:
         bb:8c:f4:de:f4:f5:03:8a:ba:65:80:1d:f5:6e:59:8a:7d:1d:
         b3:4e:54:5b:3d:38:5d:6e:ec:b0:35:d8:10:4d:7b:33:22:29:
         c3:ee:89:52:2b:a3:12:18:f7:f1:9d:01:f0:4b:16:b5:04:86:
         df:dd:f3:4b:54:db:76:4e:ec:c9:a5:fa:00:dd:6a:64:0e:36:
         e8:a5:95:e0:25:d5:58:e1:23:2b:18:63:63:d7:5d:bf:08:3b:
         1f:48:b1:d7:bd:11:72:7d:fa:75:72:33:46:66:1e:a6:a1:24:
         e4:67:48:9f:52:86:69:bb:20:83:03:3d:84:ce:26:0f:85:95:
         7a:7d:47:46:61:57:1f:f7:12:a5:84:7f:3e:5e:48:92:08:43:
         d4:1e:48:00:6c:0f:2a:bf:ff:6f:8c:99:25:e1:21:c4:4d:1a:
         31:ff:c1:7d:c4:aa:64:58:9d:7c:27:56:4c:68:a5:43:e2:6f:
         ad:09:32:cf:dc:a5:11:84:8c:2d:ed:db:7d:01:b5:9a:d8:17:
         57:29:6d:f9:b1:b9:cf:64:bf:8a:7c:72:25:25:e7:2c:f3:57:
         cb:b4:4d:34:c3:96:c6:3e:87:b1:78:da:7b:b5:84:6a:8c:04:
         f6:58:2a:44:65:31:82:6a:bb:ce:5d:ab:ac:66:53:3b:a6:f4:
         cc:c0:2f:4e:25:1b:d2:d3:1e:e9:cd:ab:f8:b4:d4:fc:29:83:
         67:41:32:8d:d4:f3:82:28:5a:44:88:6e:ff:17:ae:25:10:9f:
         21:0e:93:73:85:d2:23:de
-----BEGIN CERTIFICATE-----
MIIFxjCCA66gAwIBAgIJAJUZkyoR1rljMA0GCSqGSIb3DQEBBQUAMIGyMQswCQYD
VQQGEwJDQTEQMA4GA1UECAwHT250YXJpbzEQMA4GA1UEBwwHVG9yb250bzEeMBwG
A1UECgwVVW5pdmVyc2l0eSBvZiBUb3JvbnRvMQ8wDQYDVQQLDAZFQ0U1NjgxJTAj
BgNVBAMMHEVDRTU2OCBDZXJ0aWZpY2F0ZSBBdXRob3JpdHkxJzAlBgkqhkiG9w0B
CQEWGGVjZTU2OGNhQGVjZi51dG9yb250by5jYTAeFw0xMzAzMDYwMjU5MzBaFw0y
MzAzMDQwMjU5MzBaMIGRMQswCQYDVQQGEwJDQTEQMA4GA1UECAwHT250YXJpbzEe
MBwGA1UECgwVVW5pdmVyc2l0eSBvZiBUb3JvbnRvMQ8wDQYDVQQLDAZFQ0U1Njgx
FTATBgNVBAMMDEJvYidzIFNlcnZlcjEoMCYGCSqGSIb3DQEJARYZZWNlNTY4Ym9i
QGVjZi51dG9yb250by5jYTCCAiIwDQYJKoZIhvcNAQEBBQADggIPADCCAgoCggIB
AMBMRCYYJrZrV8jKKq3fjlJIxrHJdJ0zNmvduQem9PWvbwdimBf05RTycQNEs2QC
GqETRkkR9+sbdaG63Iw7wxRHzh6zxJw2BN1Y4SGH3dtVU3hsQyv7aKfv4lFvTq1q
UejxIPIqKnE2LgxNNQWAz1OvJYViqRp8/z0ElDC6gHsNffF2BMGsCq+sxQJgirLs
jsoOeiSLAAkDnj9FOWkyvOWFYgpFpR3BzUHN/PIrdbghDiGJCzVezi7n0MZxf17p
OfIkyJRjHHXM58zyMvrAqoHqJmImI3xTwi7HcUUYxndb/5gx0jsAHiFhTUGeSAch
qXt/gMMkYjoWoh/dQ4mEeHK77jOvOcrA9V14fHl7Bf11EUIlfwWjntKPI0RqefqU
jVV3P2PXyvkQUnGiKZSzXJOZoFRsi5GEv+DIIftTmPI34Ap97slnNCRJoxWuYEGz
n8wzsWoX+1cQewvIFAhFJQTMgBwj54IX0VRdEnEZUUgBpeqoKyEsjSILJSRoYLWn
3VaXzD2/mb3ktLQM1yMrTDgwBZNeQ0FqgYF0SK84D2KMrXD5gZAHitLxMN1RmESl
Rzx0XqHXrVdoaSUEWGooD4x/WuoRjqPf5oBg46/swJa0aEnmAkYdnTopFHRovOZh
RqieRrB2TyBSSXWnBX4R83ONMjizkXxjLE3g91t/10X1AgMBAAEwDQYJKoZIhvcN
AQEFBQADggIBAF2CD05KhDxEjERu1W6LksPALJ0IDj34W63DG9vVlQ7KoMUXDuNz
TbtFc05sUNFAcJ4bl0mnWRwkU84hw0ZC7uiUvIxWwtQNkhOrKcIp+nF9/yQHejf7
om436W6loXtjTS5sM6o00XKq84SHyeTwH56I8nPZcfKR+roth9BotsOOD+sOGENR
MNYCSoDGwc01wXHBngbjkiioiBEqoXGXeZaNuae2t6ghYFwBA8kytt4l4O2Hn8+C
sDZj66AYkhJ8Kk+CiQTHZFJ7cocDZEyVBkbdAidYiG+M8LuM9N709QOKumWAHfVu
WYp9HbNOVFs9OF1u7LA12BBNezMiKcPuiVIroxIY9/GdAfBLFrUEht/d80tU23ZO
7Mml+gDdamQONuilleAl1VjhIysYY2PXXb8IOx9Isde9EXJ9+nVyM0ZmHqahJORn
SJ9Shmm7IIMDPYTOJg+FlXp9R0ZhVx/3EqWEfz5eSJIIQ9QeSABsDyq//2+MmSXh
IcRNGjH/wX3EqmRYnXwnVkxopUPib60JMs/cpRGEjC3t230BtZrYF1cpbfmxuc9k
v4p8ciUl5yzzV8u0TTTDlsY+h7F42nu1hGqMBPZYKkRlMYJqu85dq6xmUzum9MzA
L04lG9LTHunNq/i01Pwpg2dBMo3U84IoWkSIbv8XriUQnyEOk3OF0iPe
-----END CERTIFICATE-----
-----BEGIN PRIVATE KEY-----
MIIJQwIBADANBgkqhkiG9w0BAQEFAASCCS0wggkpAgEAAoICAQDATEQmGCa2a1fI
yiqt345SSMaxyXSdMzZr3bkHpvT1r28HYpgX9OUU8nEDRLNkAhqhE0ZJEffrG3Wh
utyMO8MUR84es8ScNgTdWOEhh93bVVN4bEMr+2in7+JRb06talHo8SDyKipxNi4M
TTUFgM9TryWFYqkafP89BJQwuoB7DX3xdgTBrAqvrMUCYIqy7I7KDnokiwAJA54/
RTlpMrzlhWIKRaUdwc1BzfzyK3W4IQ4hiQs1Xs4u59DGcX9e6TnyJMiUYxx1zOfM
8jL6wKqB6iZiJiN8U8Iux3FFGMZ3W/+YMdI7AB4hYU1BnkgHIal7f4DDJGI6FqIf
3UOJhHhyu+4zrznKwPVdeHx5ewX9dRFCJX8Fo57SjyNEann6lI1Vdz9j18r5EFJx
oimUs1yTmaBUbIuRhL/gyCH7U5jyN+AKfe7JZzQkSaMVrmBBs5/MM7FqF/tXEHsL
yBQIRSUEzIAcI+eCF9FUXRJxGVFIAaXqqCshLI0iCyUkaGC1p91Wl8w9v5m95LS0
DNcjK0w4MAWTXkNBaoGBdEivOA9ijK1w+YGQB4rS8TDdUZhEpUc8dF6h161XaGkl
BFhqKA+Mf1rqEY6j3+aAYOOv7MCWtGhJ5gJGHZ06KRR0aLzmYUaonkawdk8gUkl1
pwV+EfNzjTI4s5F8YyxN4Pdbf9dF9QIDAQABAoICAQC6ExJ+qjALpKM1MCtMRF67
UKCzuHSXCM9IYSyCMxQmCLQvOUBjLh3dvxuMRhYwV7jc1IHWgwSbA983uFFhgRKr
tS/Glb1SSxM5/J8cixQrAM3cYSY+kPAcUQt2MXa4Z4ELHwj6S8L1+a9lR/Beet4j
4/8yqt1nPDzfFmcvH8jjSZLs635+ybMtesjIHBMaP72L16ZpZfeKwW2HW7zKBsay
cfcEaY/002uCmYiB7XvjyFicKrgl1K8+xCJJY9oURSpFHULaE22er8A9mL+r1HMp
cyHhJ3Z+/62PBn6clfS12tfgtZTwcpS1SCoxrK+V9wTA9AfszHAgNXZ7zudjUkQZ
U8/nCjIKONV/Doy0YpZDe2sKCRIl/NzLBrD49mj9BLlI8qW7uFeRyQDmaHPcHvF0
MTNPeY+PziNwm0BnXPcGw/0z1gUBhzLypOKhI9D+vhhlU5HR/P7s137KgLQTskCZ
NUSbwfgmIDs41mRzsGGRFuBUH2e9ICNL/pRKoFwMtcz5m5exg+Cuq9badQHvtV7M
GHsHoAEeUH+iuEDf/z/Xl+FAvGSVyEPsdBjBpw8HZiiHJoMLqW+dgKJAP9TB/+jh
dO9WxwjBD9ior9LRlGKcGKrHL6Zhq+cJDDu5Wrm7XzTFux0WA7tL7LaV9G15ITvJ
UcGL3m7yMu5w2FVqR8eNoQKCAQEA6KfMlZyCoI2r/rVQXeaOHfSSeTk/DkwdxYFG
gQINUC21TbH/alelrTe+KbO3NO2ahyUAEWD3F0YTQulhXOtTpqfI6XhGHP2v7duC
NmtDeftA7wPdnM46+/kAgqbOHgSzsqL16vXa3Y2tEhWNJZIONrO62+qrSHkrf51n
EsyKFGA1NfmD1bZ1Iv6hU1EAO+ENbhewXwsYpGmuIsmpvXW0SGx9xYtFCFw6jXzb
mmAc3kKnSfvqovPsgTnZM/iitDLMWPweQE34VI8luzMeRlfteL59aaX5ZSU+i9AJ
tDndVNAYq7jhYzgHJUKyDz8ZVeRPCO65cjuj/GrK7oZY1vnOvwKCAQEA05fOXrh9
A4CgDXJHP2BzsXqDOAbvHfuj4ikdPYYO3OA7hCTs8ej3eWB1v/vm6aEdKryw9SbB
MMftwXqZ6NzRtbqhauVyakNlsoi9Ega+rEKUld7GlYZlp16b0wMnVO9gWkzzCoVN
3d0dEKyxvyZmvsPldOELMJUXxMmdqq4+bcMEvARXsOk/mVpUr+oql4S9Di43oQuI
6JeR/JQ0qTPDa7bjQkeJoQD54xWsyArJnhGLML0hyunlbZijSrfvrET+CQsjT24L
MuEOdkyceNL5JjEdNnPODTUEGDnmAzOZHIuZN21ZIY2OgKCSp30YK0tk7BRbPykE
imgaxPH8HXlMSwKCAQAgLyZEBBSl9TM31wk5FC3QwwaIMn0gkzMDIXEJY6lH0Crm
hpsYsOtAXRe3WR8c+UmJLHsn7EwCMjVz6ikH254Eze0jLvo0BHwT4WvP72K0Oyeu
aNB9YqISPU3uxPh6epgJPDXcvQn74B9zAvw1mFDTDGXrCjmLmweDbdjWZukrDGwP
/WZZaBYoMyVKC0iHAAkFk81YOIa+J8hpE5ChnujDpA56B1wTXf7Tl9QhNO6JaJsP
xwOcazXqYoBDij+nwec24BmnN6IEwJCtptKnVH6LV36t4MHxVgei+7J79g1CME9Z
Ygf728JRSzqqlUYB9cVhLPUGcm2q+3L7MCaWBpStAoIBADYf0s4v6uqGcGqAHPF9
Pprbd81RGMFWqSkk0zH1pL+jLBY1S9blfMgzgGtHiF2itM9FzQ4oh6puucaQEeaa
9ZnCz5+Eaav86Xqtt49w4j02GsPrZGjDJCWX8cwcNmdnhAIVROYgCzcBZHnrctwu
eoG5omwvVKlsudPArvAF+johdIiTo8rBH1+e16LYB2USszl5YQl05eR5QQKW9pGB
iC95bNB7dB0XHtSTqsrQ15nzauNgvdAl3GYYcUyfmFM8oq61hqa+w2aUYxqnpi7R
6KF4VryjCsYeFZoM1WVkQXony11+PxpyF02XxWvKd/A7LOmmm2CgoWS2FILkU1VG
vdkCggEBAM6cDZfR8QB7vbx1V4SohOOfX7p1dzrPcI8lhZrzZHqoiAxL3niH8ZR3
4Qq4dPgQcmQftwakvK/eKXBfRglPbJTWKsfY0tVP9ZwPR5N1RD+fqgATec44rHNj
8M+dKjhIhSJkVuT4rwxLmnE4YFiPCKTcBOshkp2UrX1ahkfsiNOcng43F371Bl6a
D8t6HjW7rWTO2E9II9fbLUfevfCt8jdh1dIX5vHKxN0DSx9XjrbHkL3jv8bA/gtq
46Tdc66FiIJ53CkRjOdo67K+0uryNHFZDCpHppIHkuQ6OCqQBsT2Kz9BqmvBlPTn
Uz28ZnXUxgjLG5uahBp7ABnh2IhCsUw=
-----END PRIVATE KEY-----
