Certificate:
    Data:
        Version: 3 (0x2)
        Serial Number: 10743780194966223202 (0x9519932a11d6b962)
    Signature Algorithm: sha1WithRSAEncryption
        Issuer: C=CA, ST=Ontario, L=Toronto, O=University of Toronto, OU=ECE568, CN=ECE568 Certificate Authority/emailAddress=ece568ca@ecf.utoronto.ca
        Validity
            Not Before: Mar  6 02:59:11 2013 GMT
            Not After : Mar  4 02:59:11 2023 GMT
        Subject: C=CA, ST=Ontario, O=University of Toronto, OU=ECE568, CN=Alice's Client/emailAddress=ece568alice@ecf.utoronto.ca
        Subject Public Key Info:
            Public Key Algorithm: rsaEncryption
                Public-Key: (4096 bit)
                Modulus:
                    00:9d:f1:d2:c2:8f:8e:cf:e8:10:6d:70:82:d6:17:
                    1c:64:20:a3:35:5f:e4:6e:9e:5a:7e:85:91:31:6f:
                    91:d3:df:3c:24:f3:6f:c4:f3:a2:58:4b:b7:34:75:
                    50:d0:e6:6d:38:36:37:d8:f7:be:63:b6:8c:4b:a6:
                    e0:91:7a:c9:d2:ed:dd:28:a1:7c:fb:b6:e1:27:3d:
                    e6:74:4e:36:38:c9:10:40:b1:fc:33:5d:08:78:d3:
                    16:f7:5e:67:21:0d:9e:ca:a2:02:ac:e6:1a:3d:6f:
                    40:b8:2b:26:25:6d:26:66:e7:e4:58:f1:d1:90:61:
                    7a:1e:db:f2:5e:9c:05:a4:c3:78:70:7e:a9:5d:dd:
                    29:ee:ad:a6:5b:fc:c6:14:0c:23:59:33:cf:71:da:
                    a2:56:12:e4:00:19:b9:f2:63:f3:1e:5b:a7:3d:5c:
                    93:38:dd:80:1a:0a:0d:e9:c0:79:05:87:38:09:1d:
                    94:87:26:01:f5:f2:a1:1d:eb:4d:58:67:59:0c:c1:
                    f4:a9:ac:a6:6e:4a:28:e9:a1:61:52:18:f6:d3:bc:
                    5c:b9:49:ff:8f:68:d6:b0:3d:66:89:a6:0d:bf:1b:
                    73:02:33:d1:38:1c:16:d0:99:f4:3b:3b:77:ba:64:
                    4a:e2:a9:35:49:a0:29:9c:32:4e:63:cf:09:33:36:
                    04:43:f9:51:7b:07:d1:29:89:ea:7b:b3:8e:7b:95:
                    02:05:63:5d:cd:f3:f4:3c:89:ad:9e:a4:11:9b:ad:
                    10:71:2e:04:07:f3:42:9f:2a:9b:60:a9:9a:94:68:
                    ec:46:09:e4:94:61:b8:73:3f:87:fd:fd:af:70:6e:
                    8e:a5:a0:4a:16:1e:0f:af:d5:d9:b4:da:93:d2:ec:
                    b7:9c:17:a1:b4:16:ac:e4:07:d7:74:70:a1:af:ac:
                    40:f0:5e:a3:e1:a4:c1:2b:08:ad:a6:9c:0c:51:01:
                    cc:9a:11:83:89:c7:f5:c7:e9:64:55:80:72:e3:14:
                    f0:cd:d6:4e:fe:e4:91:5c:29:04:9b:91:9e:8d:14:
                    2b:d6:d6:26:29:09:79:f9:06:d3:2b:30:f2:20:c5:
                    68:09:af:c2:54:f6:a1:5d:3e:15:fe:12:2f:ef:36:
                    1d:0e:44:c8:1a:11:83:76:2a:bd:96:46:dc:c8:86:
                    60:88:b9:a7:76:e4:30:94:c0:46:27:8e:4f:32:3d:
                    dd:db:08:20:fd:da:69:a8:fc:4f:9d:78:cd:bd:f6:
                    8d:cb:b9:f3:04:65:94:5d:f6:1e:4c:d5:00:23:4c:
                    94:8e:c7:6b:4d:a9:4d:70:e4:f3:4a:5f:d3:93:cf:
                    2a:1e:c8:f5:81:dd:2d:32:c6:75:9b:4a:b6:b0:94:
                    88:92:a3
                Exponent: 65537 (0x10001)
    Signature Algorithm: sha1WithRSAEncryption
         b7:03:41:75:fe:9d:2f:26:25:2f:80:55:6a:bf:27:2b:12:7a:
         84:5b:f4:10:e9:93:18:d9:04:fb:07:7f:e9:71:41:37:c3:2d:
         10:5b:73:72:c6:03:62:df:60:87:ec:86:ce:ab:3c:eb:45:92:
         38:0d:4a:23:49:22:a8:50:aa:d3:15:42:a4:06:7a:be:8f:65:
         ab:0f:f3:a3:07:60:67:4b:83:c5:49:d8:d9:26:88:4b:98:06:
         61:b6:12:8b:15:7e:88:0f:65:1e:81:c5:89:6c:d1:fa:b9:be:
         52:8d:ac:2a:8c:a6:8b:8e:90:10:e1:e0:11:1f:8a:f0:fc:62:
         21:52:a4:e0:1e:e6:c2:dd:36:5e:ec:a8:27:ec:4b:c8:b0:49:
         58:97:b3:58:d5:aa:d5:d4:5d:09:9f:c3:25:52:42:7e:cb:9c:
         b4:45:fa:ae:0d:73:5d:2d:91:84:35:b1:71:43:e4:05:38:a3:
         0c:6e:0d:ae:4d:e6:6a:24:ff:89:4a:50:d1:89:5f:9c:ce:b1:
         9b:c0:93:09:3d:10:60:86:43:22:53:a7:1f:11:8c:8e:b9:02:
         28:c7:fa:04:cd:1d:40:bd:70:c8:1d:53:35:87:97:1c:ac:4b:
         4a:99:57:3b:d3:95:47:56:16:36:36:52:85:f8:05:93:be:f6:
         e4:58:5a:ac:12:6c:af:3d:24:a4:83:31:ac:1a:61:be:3a:9e:
         94:32:2e:e1:d9:19:c8:21:0c:95:d1:8a:31:03:a3:30:55:bb:
         86:4f:61:9f:22:eb:66:be:24:fc:c3:80:7b:c3:4f:49:74:aa:
         3a:5f:b9:5e:85:d6:b2:e4:6e:93:3a:55:28:b4:b8:3c:ca:94:
         e3:b4:9d:94:e3:3a:6f:90:a7:80:49:5b:fd:cc:79:0e:d9:06:
         bb:3e:00:03:46:32:98:38:81:f4:6f:34:55:46:76:a2:80:70:
         7f:55:fa:8f:03:a9:4a:f6:e3:0e:3d:09:ad:b8:22:e7:e9:ac:
         39:db:4a:31:8a:0f:22:45:1c:fb:4c:1d:09:20:05:56:fa:5b:
         1c:88:9c:57:3d:66:f4:83:09:b1:97:68:14:94:fa:f0:56:f0:
         b9:0f:06:8d:f8:1c:7f:4f:5b:20:db:eb:03:61:6b:73:a2:16:
         4c:f2:01:5c:46:c7:6b:97:de:dc:54:3a:83:2e:65:8a:4e:8b:
         1c:2a:dd:a6:fa:7b:4c:58:ed:60:72:ee:4d:eb:c8:1d:2a:44:
         2e:23:3c:3d:36:a8:24:3d:37:45:8e:12:6e:8e:95:82:62:47:
         37:cd:b0:8a:2f:82:8e:ec:e8:51:b0:0c:09:53:0d:d8:3e:5a:
         2b:0e:a3:9e:d1:30:78:80
-----BEGIN CERTIFICATE-----
MIIFyjCCA7KgAwIBAgIJAJUZkyoR1rliMA0GCSqGSIb3DQEBBQUAMIGyMQswCQYD
VQQGEwJDQTEQMA4GA1UECAwHT250YXJpbzEQMA4GA1UEBwwHVG9yb250bzEeMBwG
A1UECgwVVW5pdmVyc2l0eSBvZiBUb3JvbnRvMQ8wDQYDVQQLDAZFQ0U1NjgxJTAj
BgNVBAMMHEVDRTU2OCBDZXJ0aWZpY2F0ZSBBdXRob3JpdHkxJzAlBgkqhkiG9w0B
CQEWGGVjZTU2OGNhQGVjZi51dG9yb250by5jYTAeFw0xMzAzMDYwMjU5MTFaFw0y
MzAzMDQwMjU5MTFaMIGVMQswCQYDVQQGEwJDQTEQMA4GA1UECAwHT250YXJpbzEe
MBwGA1UECgwVVW5pdmVyc2l0eSBvZiBUb3JvbnRvMQ8wDQYDVQQLDAZFQ0U1Njgx
FzAVBgNVBAMMDkFsaWNlJ3MgQ2xpZW50MSowKAYJKoZIhvcNAQkBFhtlY2U1Njhh
bGljZUBlY2YudXRvcm9udG8uY2EwggIiMA0GCSqGSIb3DQEBAQUAA4ICDwAwggIK
AoICAQCd8dLCj47P6BBtcILWFxxkIKM1X+Runlp+hZExb5HT3zwk82/E86JYS7c0
dVDQ5m04NjfY975jtoxLpuCResnS7d0ooXz7tuEnPeZ0TjY4yRBAsfwzXQh40xb3
XmchDZ7KogKs5ho9b0C4KyYlbSZm5+RY8dGQYXoe2/JenAWkw3hwfqld3SnuraZb
/MYUDCNZM89x2qJWEuQAGbnyY/MeW6c9XJM43YAaCg3pwHkFhzgJHZSHJgH18qEd
601YZ1kMwfSprKZuSijpoWFSGPbTvFy5Sf+PaNawPWaJpg2/G3MCM9E4HBbQmfQ7
O3e6ZEriqTVJoCmcMk5jzwkzNgRD+VF7B9Epiep7s457lQIFY13N8/Q8ia2epBGb
rRBxLgQH80KfKptgqZqUaOxGCeSUYbhzP4f9/a9wbo6loEoWHg+v1dm02pPS7Lec
F6G0FqzkB9d0cKGvrEDwXqPhpMErCK2mnAxRAcyaEYOJx/XH6WRVgHLjFPDN1k7+
5JFcKQSbkZ6NFCvW1iYpCXn5BtMrMPIgxWgJr8JU9qFdPhX+Ei/vNh0ORMgaEYN2
Kr2WRtzIhmCIuad25DCUwEYnjk8yPd3bCCD92mmo/E+deM299o3LufMEZZRd9h5M
1QAjTJSOx2tNqU1w5PNKX9OTzyoeyPWB3S0yxnWbSrawlIiSowIDAQABMA0GCSqG
SIb3DQEBBQUAA4ICAQC3A0F1/p0vJiUvgFVqvycrEnqEW/QQ6ZMY2QT7B3/pcUE3
wy0QW3NyxgNi32CH7IbOqzzrRZI4DUojSSKoUKrTFUKkBnq+j2WrD/OjB2BnS4PF
SdjZJohLmAZhthKLFX6ID2UegcWJbNH6ub5SjawqjKaLjpAQ4eARH4rw/GIhUqTg
HubC3TZe7Kgn7EvIsElYl7NY1arV1F0Jn8MlUkJ+y5y0RfquDXNdLZGENbFxQ+QF
OKMMbg2uTeZqJP+JSlDRiV+czrGbwJMJPRBghkMiU6cfEYyOuQIox/oEzR1AvXDI
HVM1h5ccrEtKmVc705VHVhY2NlKF+AWTvvbkWFqsEmyvPSSkgzGsGmG+Op6UMi7h
2RnIIQyV0YoxA6MwVbuGT2GfIutmviT8w4B7w09JdKo6X7lehday5G6TOlUotLg8
ypTjtJ2U4zpvkKeASVv9zHkO2Qa7PgADRjKYOIH0bzRVRnaigHB/VfqPA6lK9uMO
PQmtuCLn6aw520oxig8iRRz7TB0JIAVW+lsciJxXPWb0gwmxl2gUlPrwVvC5DwaN
+Bx/T1sg2+sDYWtzohZM8gFcRsdrl97cVDqDLmWKToscKt2m+ntMWO1gcu5N68gd
KkQuIzw9NqgkPTdFjhJujpWCYkc3zbCKL4KO7OhRsAwJUw3YPlorDqOe0TB4gA==
-----END CERTIFICATE-----
-----BEGIN PRIVATE KEY-----
MIIJQgIBADANBgkqhkiG9w0BAQEFAASCCSwwggkoAgEAAoICAQCd8dLCj47P6BBt
cILWFxxkIKM1X+Runlp+hZExb5HT3zwk82/E86JYS7c0dVDQ5m04NjfY975jtoxL
puCResnS7d0ooXz7tuEnPeZ0TjY4yRBAsfwzXQh40xb3XmchDZ7KogKs5ho9b0C4
KyYlbSZm5+RY8dGQYXoe2/JenAWkw3hwfqld3SnuraZb/MYUDCNZM89x2qJWEuQA
GbnyY/MeW6c9XJM43YAaCg3pwHkFhzgJHZSHJgH18qEd601YZ1kMwfSprKZuSijp
oWFSGPbTvFy5Sf+PaNawPWaJpg2/G3MCM9E4HBbQmfQ7O3e6ZEriqTVJoCmcMk5j
zwkzNgRD+VF7B9Epiep7s457lQIFY13N8/Q8ia2epBGbrRBxLgQH80KfKptgqZqU
aOxGCeSUYbhzP4f9/a9wbo6loEoWHg+v1dm02pPS7LecF6G0FqzkB9d0cKGvrEDw
XqPhpMErCK2mnAxRAcyaEYOJx/XH6WRVgHLjFPDN1k7+5JFcKQSbkZ6NFCvW1iYp
CXn5BtMrMPIgxWgJr8JU9qFdPhX+Ei/vNh0ORMgaEYN2Kr2WRtzIhmCIuad25DCU
wEYnjk8yPd3bCCD92mmo/E+deM299o3LufMEZZRd9h5M1QAjTJSOx2tNqU1w5PNK
X9OTzyoeyPWB3S0yxnWbSrawlIiSowIDAQABAoICAQCRphWX6zBkEvlLIozUhl1d
DCfVKYeKZqbGs78PmnYcrmhVHtP8CDu2NqRMUL7k1Qj05DKd9t/wLb+0Z8ABB/0j
cMwYEsshiCSavl9M827W8Lr3HeqXJvyQBwDPvpNVjKzY6YuUC2E5M+W3r7qumrfl
/4O4bc612N33pRYdHr2pkcP34SWn9DId8q5Nd4zlocfbE4cB0/8NZsAwQ4kQuBDS
9uwDDuKIduIRoSHxY9d2PJp09X0pH+iA+GyRHZKmqi8ZL6bB7P9RBzwxLeuD/Jdo
6/OJvm5XvfL0dLqgxqs4h0SITGZr2qNDXCU3lgAztxbDbAxCx9p3OoDFU3+FZROK
dEs6VxD6ZMrdjMxWcrbs9yfTtklG30Uz+jZk1blLlMJi7SNMSfn4eWRAy3cqZ3Wi
Ly7H6WJRtoxQlEKMECV2c3dGYsTFKLYgpt5xT0fQM9+ee0sWUhTVlGOYx9PWxP50
EHhfwROnHL4dHhz/IRXyoKs9s34Aue6nt4B8qnJFCkOPUViIUbM+cp6pfD/yNFay
dG7DJY/QRbZtQ1LBsKKj+p0EoW6k7u2K/6xdnx/GTvq8cH9I0DtAhLSbltzAKYOK
sEIjtns4I/yMNCBa0pJLOxyE6z1zpesnqhjtCj5OCsneOHR8NBdhAUp8isaKVGi5
Ek+ls1ueFjUrwO6bvQ6kYQKCAQEAz53Sh3raaU8qdxDBdItKa1mZh4YZZ5hApnOj
msseO1lZX6vT6wTR5xSsSCOcjo89HBH1kTIQIPLea0247RSfVdVCroE1fM5c6xds
Wzp1SBfZvnq3eO570kDCTIz/uWP3HJp3XFjFdg8jatZC36fikhg69eAgAygLg4gJ
YSI8yNEKu3qpze0/8Jc0pFqtyurbtyOoLT90s739WoIDB8HSE4Oe55jdT0d4FPxg
EFs4lT7L8vppx4A3jDH2LUxrghqt33Z08uQlKk4vSLGhNQp7mgFYLKYnDWjDbnSL
+74/mqTA0qvXQLfZv3DXg34QtUMkCN1PK3h3fWbGijrH0x7c8wKCAQEAwsChWHVg
vLnbbE6cBqCKY/mRoHb6HTL3itaJKSyPL+1g3rM3JCnXBhM0aiJB3h2eUGa/dMsf
+46rQ9n1uVLGNxAsYJTOHWrfngIjUTqWfQPvnguKbpGZout5UP60kv4cDp8dOz05
v3S3PFmCinb+i+vOXgMlLKsP8T08FJrTvH3s7kkoOwROaV9XkmLGZKqPP2EKieND
9x8YvJL0r/m/oBJOVt1BQavh1pwvNAkXZRpV6ChGTMxadVC7cK8cEB7T/0LFRDkj
KM3B6/yjWATBpE10QHzzoNJxWM6DKfjY/qEMsYQcGYjh0+xHzz6cse41Tt5dTbpE
HsYGC5cY0oQfkQKCAQAj3gYS9bxp2Q1jCHgDZFT0+sO1UAtvhDQXDX9ELLcKVcNE
7fBsd6aznzSsOcrALirGgKvF67oxlwOp0gGSo69rKq6cayIMb7JJwwArOowsakJp
z9WGhNzLU/i9NNaw9n4oaN8aCxQB81eRC3b+IIjZ6Gm3NIMTSIXEsWm9aCbMIqES
BnzzYHtdWyHzCt9fYPeYSgax2naU3su4KSHQ40Ehselv5U7GdXhfV8JY0QmTbwfY
8D36A0KVa8Q1yy//iBBlvJczpwpsppkwm89X1HnJ/1V2UTYJ8QFiQaw1T4a5dqEB
REKpoZlyo1H4G31Tc0f0aBdXUTaDaY//LWx8IqbVAoIBADdAcUXoXx6L2A2dK7TR
nRGJ/1+4AXOBPyt7fARbaPAe92mXDKDM4f0OO8OUnn1Gh+ClldGrwxIaQsqILqd6
LVP32a846FT+OhzY3G4yIfmrwTJkccy2sBDBn3R0HoTJZOpdB+0DjLudgFK1zkw8
QDEwICcZ21UV3vsA9WefGU0TqMFdrfU4XoqUiwKz1TdAEE3Z2SSPfnvArcLqKlM2
lr/yEZmhQd9AxVyeiOHJZoK/evnXW0J0g4Fe+x6X/20vYdO8fLzDPQ9ZeJfb3/eb
udhERSP6jx/kNFYOmLWyrNVomXJPWa2A4Ri/owvP5qKwQx1yBqSDoMneQl7NajRn
WZECggEAMVXU45C4YISwUlwNagg5pAbIiNSpNmB6LLxvOq1Mk0davQhZtmuez4X5
/eUPHJkuHypQ3hHznhRiZD8cn718hF9AbWgByHWU0ClwBxjmOI/zZPc9EW7rDavf
y5kdQPrJiMDa+naccrnJeuSjWYF8RCAV/w1NqxZ/QQz44pGyGGSffbYqVSM719EH
q1ONe4twQWI2EQV8hgJRIZjWSGTQtt1PfMNcy7N85NWVoaaDib6c7PdPHMGSqtKF
EFbKJ/lCZBhQpmaWLH9Qu+DoWRryoc8f87ZUDoST2e12qpwZyCyDm2kC9dlmdqsS
MqYe2Si+2+hDOAMvS78HZw73fXo8NA==
-----END PRIVATE KEY-----
